; Function Attrs: nounwind uwtable
define dso_local i32 @conn_reply(ptr noundef readonly captures(none) %0, ptr noundef %1, ptr noundef %2, ptr noundef %3) local_unnamed_addr #0 {
  %5 = getelementptr inbounds nuw i8, ptr %0, i64 72
  %6 = load i32, ptr %5, align 8, !tbaa !18
  %.not = icmp eq i32 %6, 0
  %.not25 = icmp eq ptr %1, null
  %7 = getelementptr inbounds nuw i8, ptr %0, i64 20
  %8 = load i32, ptr %7, align 4, !tbaa !25
  %9 = getelementptr inbounds nuw i8, ptr %0, i64 56
  %10 = load i8, ptr %9, align 8, !tbaa !26
  %11 = sext i8 %10 to i32
  br i1 %.not, label %17, label %12

12:                                               ; preds = %4
  br i1 %.not25, label %15, label %13

13:                                               ; preds = %12
  %14 = tail call i32 (i32, ptr, ...) @mdprintf(i32 noundef %8, ptr noundef nonnull @.str.7, i32 noundef %6, ptr noundef nonnull %1, ptr noundef %2, ptr noundef %3, i32 noundef %11) #14
  br label %22

15:                                               ; preds = %12
  %16 = tail call i32 (i32, ptr, ...) @mdprintf(i32 noundef %8, ptr noundef nonnull @.str.8, i32 noundef %6, ptr noundef %2, ptr noundef %3, i32 noundef %11) #14
  br label %22

17:                                               ; preds = %4
  br i1 %.not25, label %20, label %18

18:                                               ; preds = %17
  %19 = tail call i32 (i32, ptr, ...) @mdprintf(i32 noundef %8, ptr noundef nonnull @.str.9, ptr noundef nonnull %1, ptr noundef %2, ptr noundef %3, i32 noundef %11) #14
  br label %22

20:                                               ; preds = %17
  %21 = tail call i32 (i32, ptr, ...) @mdprintf(i32 noundef %8, ptr noundef nonnull @.str.10, ptr noundef %2, ptr noundef %3, i32 noundef %11) #14
  br label %22

22:                                               ; preds = %20, %18, %15, %13
  %.0 = phi i32 [ %14, %13 ], [ %16, %15 ], [ %19, %18 ], [ %21, %20 ]
  ret i32 %.0
}